; Function Attrs: mustprogress uwtable
define internal noundef i32 @_ZN4LuauL21setFunctionParametersEP9lua_State(ptr noundef %0) #2 personality ptr @__gxx_personality_v0 {
  %2 = alloca %"class.std::__cxx11::basic_string", align 8
  %3 = tail call noundef i32 @_Z10lua_gettopP9lua_State(ptr noundef %0)
  %4 = add i32 %3, -4
  %or.cond = icmp ult i32 %4, -3
  br i1 %or.cond, label %5, label %6

5:                                                ; preds = %1
  tail call void (ptr, ptr, ...) @_Z11luaL_errorLP9lua_StatePKcz(ptr noundef %0, ptr noundef nonnull @.str.203, i32 noundef %3) #29
  unreachable

6:                                                ; preds = %1
  %7 = tail call noundef ptr @_Z20lua_touserdatataggedP9lua_Stateii(ptr noundef %0, i32 noundef 1, i32 noundef 42)
  %.not.not.i = icmp eq ptr %7, null
  br i1 %.not.not.i, label %8, label %_ZN4Luau15getTypeUserDataEP9lua_Statei.exit

8:                                                ; preds = %6
  tail call void @_Z15luaL_typeerrorLP9lua_StateiPKc(ptr noundef %0, i32 noundef 1, ptr noundef nonnull @.str.67) #29
  unreachable

_ZN4Luau15getTypeUserDataEP9lua_Statei.exit:      ; preds = %6
  %9 = load ptr, ptr %7, align 8, !tbaa !29
  %.not.i = icmp eq ptr %9, null
  br i1 %.not.i, label %12, label %_ZN4Luau6get_ifINS_24TypeFunctionFunctionTypeEJNS_25TypeFunctionPrimitiveTypeENS_19TypeFunctionAnyTypeENS_23TypeFunctionUnknownTypeENS_21TypeFunctionNeverTypeENS_25TypeFunctionSingletonTypeENS_21TypeFunctionUnionTypeENS_28TypeFunctionIntersectionTypeENS_24TypeFunctionNegationTypeES1_NS_21TypeFunctionTableTypeENS_21TypeFunctionClassTypeENS_23TypeFunctionGenericTypeEEEEPT_PNS_7VariantIJDpT0_EEE.exit.i

_ZN4Luau6get_ifINS_24TypeFunctionFunctionTypeEJNS_25TypeFunctionPrimitiveTypeENS_19TypeFunctionAnyTypeENS_23TypeFunctionUnknownTypeENS_21TypeFunctionNeverTypeENS_25TypeFunctionSingletonTypeENS_21TypeFunctionUnionTypeENS_28TypeFunctionIntersectionTypeENS_24TypeFunctionNegationTypeES1_NS_21TypeFunctionTableTypeENS_21TypeFunctionClassTypeENS_23TypeFunctionGenericTypeEEEEPT_PNS_7VariantIJDpT0_EEE.exit.i: ; preds = %_ZN4Luau15getTypeUserDataEP9lua_Statei.exit
  %10 = load i32, ptr %9, align 8, !tbaa !31
  %11 = icmp eq i32 %10, 8
  br i1 %11, label %_ZN4Luau10getMutableINS_24TypeFunctionFunctionTypeEEEPT_PKNS_16TypeFunctionTypeE.exit, label %12

12:                                               ; preds = %_ZN4Luau6get_ifINS_24TypeFunctionFunctionTypeEJNS_25TypeFunctionPrimitiveTypeENS_19TypeFunctionAnyTypeENS_23TypeFunctionUnknownTypeENS_21TypeFunctionNeverTypeENS_25TypeFunctionSingletonTypeENS_21TypeFunctionUnionTypeENS_28TypeFunctionIntersectionTypeENS_24TypeFunctionNegationTypeES1_NS_21TypeFunctionTableTypeENS_21TypeFunctionClassTypeENS_23TypeFunctionGenericTypeEEEEPT_PNS_7VariantIJDpT0_EEE.exit.i, %_ZN4Luau15getTypeUserDataEP9lua_Statei.exit
  call void @llvm.lifetime.start.p0(i64 32, ptr nonnull %2) #27
  call fastcc void @_ZN4LuauL6getTagB5cxx11EP9lua_StatePKNS_16TypeFunctionTypeE(ptr dead_on_unwind noalias writable align 8 %2, ptr noundef %9)
  %13 = load ptr, ptr %2, align 8, !tbaa !15
  invoke void (ptr, ptr, ...) @_Z11luaL_errorLP9lua_StatePKcz(ptr noundef %0, ptr noundef nonnull @.str.204, ptr noundef %13) #29
          to label %14 unwind label %15

14:                                               ; preds = %12
  unreachable

15:                                               ; preds = %12
  %16 = landingpad { ptr, i32 }
          cleanup
  %17 = load ptr, ptr %2, align 8, !tbaa !15
  %18 = getelementptr inbounds nuw i8, ptr %2, i64 16
  %19 = icmp eq ptr %17, %18
  br i1 %19, label %_ZNKSt7__cxx1112basic_stringIcSt11char_traitsIcESaIcEE11_M_is_localEv.exit.thread.i.i, label %_ZNKSt7__cxx1112basic_stringIcSt11char_traitsIcESaIcEE11_M_is_localEv.exit.i.i

_ZNKSt7__cxx1112basic_stringIcSt11char_traitsIcESaIcEE11_M_is_localEv.exit.thread.i.i: ; preds = %15
  %20 = getelementptr inbounds nuw i8, ptr %2, i64 8
  %21 = load i64, ptr %20, align 8, !tbaa !18
  %22 = icmp ult i64 %21, 16
  call void @llvm.assume(i1 %22)
  br label %_ZNSt7__cxx1112basic_stringIcSt11char_traitsIcESaIcEED2Ev.exit

_ZNKSt7__cxx1112basic_stringIcSt11char_traitsIcESaIcEE11_M_is_localEv.exit.i.i: ; preds = %15
  %23 = load i64, ptr %18, align 8, !tbaa !19
  %24 = add i64 %23, 1
  call void @_ZdlPvm(ptr noundef %17, i64 noundef %24) #30
  br label %_ZNSt7__cxx1112basic_stringIcSt11char_traitsIcESaIcEED2Ev.exit

_ZNSt7__cxx1112basic_stringIcSt11char_traitsIcESaIcEED2Ev.exit: ; preds = %_ZNKSt7__cxx1112basic_stringIcSt11char_traitsIcESaIcEE11_M_is_localEv.exit.thread.i.i, %_ZNKSt7__cxx1112basic_stringIcSt11char_traitsIcESaIcEE11_M_is_localEv.exit.i.i
  call void @llvm.lifetime.end.p0(i64 32, ptr nonnull %2) #27
  resume { ptr, i32 } %16

_ZN4Luau10getMutableINS_24TypeFunctionFunctionTypeEEEPT_PKNS_16TypeFunctionTypeE.exit: ; preds = %_ZN4Luau6get_ifINS_24TypeFunctionFunctionTypeEJNS_25TypeFunctionPrimitiveTypeENS_19TypeFunctionAnyTypeENS_23TypeFunctionUnknownTypeENS_21TypeFunctionNeverTypeENS_25TypeFunctionSingletonTypeENS_21TypeFunctionUnionTypeENS_28TypeFunctionIntersectionTypeENS_24TypeFunctionNegationTypeES1_NS_21TypeFunctionTableTypeENS_21TypeFunctionClassTypeENS_23TypeFunctionGenericTypeEEEEPT_PNS_7VariantIJDpT0_EEE.exit.i
  %25 = tail call fastcc noundef ptr @_ZN4LuauL11getTypePackEP9lua_Stateii(ptr noundef %0, i32 noundef 2, i32 noundef 3)
  %26 = getelementptr inbounds nuw i8, ptr %9, i64 56
  store ptr %25, ptr %26, align 8, !tbaa !86
  ret i32 0
}